(ioptparse
Values
p0
(dp1
S'bSkipLambdaIndex'
p2
S''
p3
sS'methods'
p4
(lp5
S'TI'
p6
aS'TI-CUBIC'
p7
asS'prefix'
p8
S'actual_grad_'
p9
sS'verbose'
p10
I00
sS'lv_names'
p11
(lp12
g3
asS'temperature'
p13
I298
sS'ddFs'
p14
(lp15
(dp16
g7
cnumpy.core.multiarray
scalar
p17
(cnumpy
dtype
p18
(S'f8'
p19
I0
I1
tp20
Rp21
(I3
S'<'
p22
NNNI-1
I-1
I0
tp23
bS'\x00\x00\x00\x00\x00\x00\x00\x00'
p24
tp25
Rp26
sg6
g17
(g21
S'\x00\x00\x00\x00\x00\x00\x00\x00'
p27
tp28
Rp29
sa(dp30
g7
g17
(g21
S'\x83\xb1\xfa\x0e\xda1q?'
p31
tp32
Rp33
sg6
g17
(g21
S'D\xe1\xb5W\x03,p?'
p34
tp35
Rp36
sa(dp37
g7
g17
(g21
S'\x83\xb1\xfa\x0e\xda1q?'
p38
tp39
Rp40
sg6
g17
(g21
S'D\xe1\xb5W\x03,p?'
p41
tp42
Rp43
sasS'overlap'
p44
I00
sS'units'
p45
S'(kcal/mol)'
p46
sS'df_allk'
p47
cnumpy.core.multiarray
_reconstruct
p48
(cnumpy
ndarray
p49
(I0
tp50
S'b'
p51
tp52
Rp53
(I1
(I15
tp54
g18
(S'O8'
p55
I0
I1
tp56
Rp57
(I3
S'|'
p58
NNNI-1
I-1
I63
tp59
bI00
(lp60
(dp61
S'TI-CUBIC'
p62
g17
(g21
S'\xfe\xeb\xaeb\xd9\x06\x96?'
p63
tp64
Rp65
sg6
g17
(g21
S'\xea\x07\xc7\x84^\xd5\x95?'
p66
tp67
Rp68
sa(dp69
g62
g17
(g21
S'L\x15b\xb6J\xe1\x9a?'
p70
tp71
Rp72
sg6
g17
(g21
S'\t\xfa?\xa0\x18\xbe\x9a?'
p73
tp74
Rp75
sa(dp76
g62
g17
(g21
S'@\x08\xce\x8c\xcc\x84\xa1?'
p77
tp78
Rp79
sg6
g17
(g21
S'^\xb1I\x01\xfd\xb2\xa1?'
p80
tp81
Rp82
sa(dp83
g62
g17
(g21
S'\x8e\xa16\xe7\xe1\x0e\xa6?'
p84
tp85
Rp86
sg6
g17
(g21
S'\x92\xa1\t\x8a\xf5\xe6\xa5?'
p87
tp88
Rp89
sa(dp90
g62
g17
(g21
S'\xd1N\xc9o9\xd8\xa8?'
p91
tp92
Rp93
sg6
g17
(g21
S'IPw\x83S\xeb\xa8?'
p94
tp95
Rp96
sa(dp97
g62
g17
(g21
S'<\x98X4\x13\xf3\xbb?'
p98
tp99
Rp100
sg6
g17
(g21
S'\xbbV\x84\x9d\xd4\xd6\xbb?'
p101
tp102
Rp103
sa(dp104
g62
g17
(g21
S'\x82D\xd8\x91\x1b\x11\xbc?'
p105
tp106
Rp107
sg6
g17
(g21
S'\xab\x807\xe2\x9f"\xbc?'
p108
tp109
Rp110
sa(dp111
g62
g17
(g21
S'z\xd3\xa5%k\x98\xb9?'
p112
tp113
Rp114
sg6
g17
(g21
S'\xeeUu{\x8c\x9b\xb9?'
p115
tp116
Rp117
sa(dp118
g62
g17
(g21
S'bj\xc9\x11\x0f\xfc\xa6?'
p119
tp120
Rp121
sg6
g17
(g21
S'\xe6\x10\xcdC\xe2"\xa7?'
p122
tp123
Rp124
sa(dp125
g62
g17
(g21
S'\xb0\x10 \x88X\x04\xa6?'
p126
tp127
Rp128
sg6
g17
(g21
S'\xd7P\x8d\x9e\x86@\xa6?'
p129
tp130
Rp131
sa(dp132
g62
g17
(g21
S'\x02x3\x9a\xbaY\xb7?'
p133
tp134
Rp135
sg6
g17
(g21
S'\xd6\xc9\x1b=(\x99\xb8?'
p136
tp137
Rp138
sa(dp139
g62
g17
(g21
S'\xa5\x0b\x9a*\xb5\x12\xa9?'
p140
tp141
Rp142
sg6
g17
(g21
S'\x03\xa2\xddm^\x1c\xa9?'
p143
tp144
Rp145
sa(dp146
g62
g17
(g21
S'\xe0\x1a\xef\x96\x86t\xa6?'
p147
tp148
Rp149
sg6
g17
(g21
S'\xe4\xf4\xa9\x93\x00\xd0\xa6?'
p150
tp151
Rp152
sa(dp153
g62
g17
(g21
S'\xfc\xfep\xfb\xdc\xc9\xa0?'
p154
tp155
Rp156
sg6
g17
(g21
S'\x1c8\xedvT\xbd\xa0?'
p157
tp158
Rp159
sa(dp160
g62
g17
(g21
S'\xe6\xb2\x9f\xeaP\x1a\x89?'
p161
tp162
Rp163
sg6
g17
(g21
S'c\x8d9\xfe\xe0\x14\x89?'
p164
tp165
Rp166
satp167
bsS'breakdown'
p168
I00
sS'datafile_directory'
p169
S'/Users/pavel/shirts/clean_scripts/xvg_s/oct_20/stefano/run_001/run001_vac_MetEth/zort_gromacs_skip_lambda/ggit2/alchemical-free-energy/sire'
p170
sS'bIgnoreWL'
p171
I00
sS'init_with'
p172
S'BAR'
p173
sS'dFs'
p174
(lp175
(dp176
g7
I0
sg6
I0
sa(dp177
g7
g17
(g21
S'pe\xdfxK\xe6\xe9?'
p178
tp179
Rp180
sg6
g17
(g21
S'jZ\xc4\x8a\xda\x17\xea?'
p181
tp182
Rp183
sa(dp184
g7
g17
(g21
S'pe\xdfxK\xe6\xe9?'
p185
tp186
Rp187
sg6
g17
(g21
S'jZ\xc4\x8a\xda\x17\xea?'
p188
tp189
Rp190
sasS'output_directory'
p191
S'.'
p192
sS'beta'
p193
F0.40359852979970595
sS'ddf_allk'
p194
g48
(g49
(I0
tp195
g51
tp196
Rp197
(I1
(I15
tp198
g57
I00
(lp199
(dp200
g62
g17
(g21
S'|^\xe7\xc2$G1?'
p201
tp202
Rp203
sg6
g17
(g21
S'*:U\xf9a\xcc/?'
p204
tp205
Rp206
sa(dp207
g62
g17
(g21
S'\x84NF(*,6?'
p208
tp209
Rp210
sg6
g17
(g21
S'\x8a\xfe:\xd3\xf0\xd53?'
p211
tp212
Rp213
sa(dp214
g62
g17
(g21
S'\x07\xf1\x1a\xe0.\xb7??'
p215
tp216
Rp217
sg6
g17
(g21
S'/\xf6\x8ba.\xe4:?'
p218
tp219
Rp220
sa(dp221
g62
g17
(g21
S'\xa415\x043zC?'
p222
tp223
Rp224
sg6
g17
(g21
S'\xe4?\xd2\x00\xfd\xa9@?'
p225
tp226
Rp227
sa(dp228
g62
g17
(g21
S'H\xfak\xd7\x13\x00F?'
p229
tp230
Rp231
sg6
g17
(g21
S'\xa6\x80\x90\x96X4C?'
p232
tp233
Rp234
sa(dp235
g62
g17
(g21
S'\xf3\xc5j-\xc0p^?'
p236
tp237
Rp238
sg6
g17
(g21
S"$\x90\x96'\xbc\xe9U?"
p239
tp240
Rp241
sa(dp242
g62
g17
(g21
S'\xac\x1d\xb3+33[?'
p243
tp244
Rp245
sg6
g17
(g21
S'z\xc5\xf4\xda \x80V?'
p246
tp247
Rp248
sa(dp249
g62
g17
(g21
S'|\x00|\xb8\x81\xd6Z?'
p250
tp251
Rp252
sg6
g17
(g21
S'\x0eGEe\x80\\T?'
p253
tp254
Rp255
sa(dp256
g62
g17
(g21
S'0\x93\xcf\xb7\xa4\nD?'
p257
tp258
Rp259
sg6
g17
(g21
S'1\xb7\xd7)\x1e B?'
p260
tp261
Rp262
sa(dp263
g62
g17
(g21
S'rz\x1f \xd9\\B?'
p264
tp265
Rp266
sg6
g17
(g21
S'tl\x9e`\x07~@?'
p267
tp268
Rp269
sa(dp270
g62
g17
(g21
S',\xa7=\xfdI\xd1\\?'
p271
tp272
Rp273
sg6
g17
(g21
S'\xe7\x97\x9cu\xc2\x1dQ?'
p274
tp275
Rp276
sa(dp277
g62
g17
(g21
S'\xbf8\x07\x02\xb4\xcaC?'
p278
tp279
Rp280
sg6
g17
(g21
S'\xcd\xbe8G\x08U??'
p281
tp282
Rp283
sa(dp284
g62
g17
(g21
S'ISl\\s\xbeA?'
p285
tp286
Rp287
sg6
g17
(g21
S'uq]\xd5\x0b\xee9?'
p288
tp289
Rp290
sa(dp291
g62
g17
(g21
S'\xdfg\x1a$ne;?'
p292
tp293
Rp294
sg6
g17
(g21
S'\xbc\x1c%\x0e[B3?'
p295
tp296
Rp297
sa(dp298
g62
g17
(g21
S'\xe7\xcao\x03"\xee\x1d?'
p299
tp300
Rp301
sg6
g17
(g21
S'\x08.\x8c^Rz\x1d?'
p302
tp303
Rp304
satp305
bsS'when_analyzed'
p306
S'Sun Nov 30 12:16:34 2014'
p307
sS'uncorr_threshold'
p308
I0
sS'beta_report'
p309
F0.40359852979970595
sS'decimal'
p310
I3
sS'bForwrev'
p311
I0
sS'bCFM'
p312
I00
sS'suffix'
p313
S'dat'
p314
sS'equiltime'
p315
F50.0
sS'relative_tolerance'
p316
F1e-10
sS'software'
p317
S'Sire'
p318
sb.