(ioptparse
Values
p0
(dp1
S'bSkipLambdaIndex'
p2
S''
p3
sS'methods'
p4
(lp5
S'TI'
p6
aS'TI-CUBIC'
p7
asS'prefix'
p8
S'ti*/ti'
p9
sS'verbose'
p10
I01
sS'lv_names'
p11
(lp12
g3
asS'temperature'
p13
I298
sS'ddFs'
p14
(lp15
(dp16
g7
cnumpy.core.multiarray
scalar
p17
(cnumpy
dtype
p18
(S'f8'
p19
I0
I1
tp20
Rp21
(I3
S'<'
p22
NNNI-1
I-1
I0
tp23
bS'\x00\x00\x00\x00\x00\x00\x00\x00'
p24
tp25
Rp26
sg6
g17
(g21
S'\x00\x00\x00\x00\x00\x00\x00\x00'
p27
tp28
Rp29
sa(dp30
g7
g17
(g21
S'\xf9\x8f\xcaCf\xdce?'
p31
tp32
Rp33
sg6
g17
(g21
S',A\xc8\xd4\xe2\x06e?'
p34
tp35
Rp36
sa(dp37
g7
g17
(g21
S'\xf9\x8f\xcaCf\xdce?'
p38
tp39
Rp40
sg6
g17
(g21
S',A\xc8\xd4\xe2\x06e?'
p41
tp42
Rp43
sasS'overlap'
p44
I00
sS'units'
p45
S'(kcal/mol)'
p46
sS'df_allk'
p47
cnumpy.core.multiarray
_reconstruct
p48
(cnumpy
ndarray
p49
(I0
tp50
S'b'
p51
tp52
Rp53
(I1
(I4
tp54
g18
(S'O8'
p55
I0
I1
tp56
Rp57
(I3
S'|'
p58
NNNI-1
I-1
I63
tp59
bI00
(lp60
(dp61
S'TI-CUBIC'
p62
g17
(g21
S')[,\t\x9f\x85\xeb?'
p63
tp64
Rp65
sg6
g17
(g21
S'([,\t\x9f\x85\xeb?'
p66
tp67
Rp68
sa(dp69
g62
g17
(g21
S'([,\t\x9f\x85\xeb?'
p70
tp71
Rp72
sg6
g17
(g21
S'([,\t\x9f\x85\xeb?'
p73
tp74
Rp75
sa(dp76
g62
g17
(g21
S"'[,\t\x9f\x85\xeb?"
p77
tp78
Rp79
sg6
g17
(g21
S'([,\t\x9f\x85\xeb?'
p80
tp81
Rp82
sa(dp83
g62
g17
(g21
S'([,\t\x9f\x85\xeb?'
p84
tp85
Rp86
sg6
g17
(g21
S'([,\t\x9f\x85\xeb?'
p87
tp88
Rp89
satp90
bsS'breakdown'
p91
I00
sS'datafile_directory'
p92
S'/Users/pavel/edimburgo/ggit_init/alchemical-free-energy/amber'
p93
sS'bIgnoreWL'
p94
I00
sS'init_with'
p95
S'BAR'
p96
sS'dFs'
p97
(lp98
(dp99
g7
I0
sg6
I0
sa(dp100
g7
g17
(g21
S'([,\t\x9f\x85\x0b@'
p101
tp102
Rp103
sg6
g17
(g21
S'([,\t\x9f\x85\x0b@'
p104
tp105
Rp106
sa(dp107
g7
g17
(g21
S'([,\t\x9f\x85\x0b@'
p108
tp109
Rp110
sg6
g17
(g21
S'([,\t\x9f\x85\x0b@'
p111
tp112
Rp113
sasS'output_directory'
p114
S'.'
p115
sS'beta'
p116
F0.40359852979970595
sS'ddf_allk'
p117
g48
(g49
(I0
tp118
g51
tp119
Rp120
(I1
(I4
tp121
g57
I00
(lp122
(dp123
g62
g17
(g21
S'?\x9bN\xe4\xc5\xc3Q?'
p124
tp125
Rp126
sg6
g17
(g21
S'8\x1d2\xa5(\xcaO?'
p127
tp128
Rp129
sa(dp130
g62
g17
(g21
S'\xa3\x14\xac\x1d\x8d\xdfQ?'
p131
tp132
Rp133
sg6
g17
(g21
S'8\x1d2\xa5(\xcaO?'
p134
tp135
Rp136
sa(dp137
g62
g17
(g21
S'\xa3\x14\xac\x1d\x8d\xdfQ?'
p138
tp139
Rp140
sg6
g17
(g21
S'8\x1d2\xa5(\xcaO?'
p141
tp142
Rp143
sa(dp144
g62
g17
(g21
S'?\x9bN\xe4\xc5\xc3Q?'
p145
tp146
Rp147
sg6
g17
(g21
S'8\x1d2\xa5(\xcaO?'
p148
tp149
Rp150
satp151
bsS'when_analyzed'
p152
S'Tue Dec 30 19:55:49 2014'
p153
sS'uncorr_threshold'
p154
I50
sS'beta_report'
p155
F0.40359852979970595
sS'decimal'
p156
I8
sS'bForwrev'
p157
I0
sS'bCFM'
p158
I00
sS'suffix'
p159
S'out'
p160
sS'equiltime'
p161
I0
sS'relative_tolerance'
p162
F1e-10
sS'software'
p163
S'AMBER'
p164
sb.